(dp0
Vmessages
p1
(lp2
VCould not find any messages containing line information.
p3
aVPlease take a look at the log file ABA Master.latexmk.log to find the source of the problem.
p4
asVfiles_with_guttermarks
p5
c__builtin__
set
p6
((lp7
V/Users/Alex/Documents/Representations/./ABA Master.tex
p8
aV/Users/Alex/Documents/Representations/chapters/P0C0.tex
p9
aV/Users/Alex/Documents/Representations/./chapters/P0C0.tex
p10
atp11
Rp12
s.