(dp0
Vmessages
p1
(lp2
VERROR   subfiles.cls:40 \u2014 Emergency stop
p3
asVfiles_with_guttermarks
p4
c__builtin__
set
p5
((lp6
V/usr/local/texlive/2015/texmf-dist/tex/latex/subfiles/subfiles.cls
p7
atp8
Rp9
s.builtin__
set
p6
((lp7
V/usr/local/texlive/2015/texmf-dist/tex/latex/subfiles/subfiles.cls
p8
atp9
Rp10
s.